	.text
	.file	"matmul.cu"
	.globl	_Z24__device_stub__matrixMulPfS_S_i # -- Begin function _Z24__device_stub__matrixMulPfS_S_i
	.p2align	4, 0x90
	.type	_Z24__device_stub__matrixMulPfS_S_i,@function
_Z24__device_stub__matrixMulPfS_S_i:    # @_Z24__device_stub__matrixMulPfS_S_i
	.cfi_startproc
# %bb.0:
	pushq	%rbp
	.cfi_def_cfa_offset 16
	.cfi_offset %rbp, -16
	movq	%rsp, %rbp
	.cfi_def_cfa_register %rbp
	subq	$160, %rsp
	movq	%rdi, -8(%rbp)
	movq	%rsi, -16(%rbp)
	movq	%rdx, -24(%rbp)
	movl	%ecx, -28(%rbp)
	leaq	-8(%rbp), %rax
	movq	%rax, -144(%rbp)
	leaq	-16(%rbp), %rax
	movq	%rax, -136(%rbp)
	leaq	-24(%rbp), %rax
	movq	%rax, -128(%rbp)
	leaq	-28(%rbp), %rax
	movq	%rax, -120(%rbp)
	leaq	-40(%rbp), %rdi
	leaq	-56(%rbp), %rsi
	leaq	-64(%rbp), %rdx
	leaq	-72(%rbp), %rcx
	callq	__cudaPopCallConfiguration@PLT
	movq	-64(%rbp), %r10
	movq	-72(%rbp), %rax
	movq	-40(%rbp), %rcx
	movq	%rcx, -88(%rbp)
	movl	-32(%rbp), %ecx
	movl	%ecx, -80(%rbp)
	movq	-88(%rbp), %rsi
	movl	-80(%rbp), %edx
	movq	-56(%rbp), %rcx
	movq	%rcx, -104(%rbp)
	movl	-48(%rbp), %ecx
	movl	%ecx, -96(%rbp)
	movq	-104(%rbp), %rcx
	movl	-96(%rbp), %r8d
	leaq	_Z24__device_stub__matrixMulPfS_S_i(%rip), %rdi
	leaq	-144(%rbp), %r9
	movq	%r10, (%rsp)
	movq	%rax, 8(%rsp)
	callq	cudaLaunchKernel@PLT
# %bb.1:
	addq	$160, %rsp
	popq	%rbp
	.cfi_def_cfa %rsp, 8
	retq
.Lfunc_end0:
	.size	_Z24__device_stub__matrixMulPfS_S_i, .Lfunc_end0-_Z24__device_stub__matrixMulPfS_S_i
	.cfi_endproc
                                        # -- End function
	.section	.rodata.cst4,"aM",@progbits,4
	.p2align	2                               # -- Begin function main
.LCPI1_0:
	.long	0x40000000                      # float 2
.LCPI1_1:
	.long	0x3f800000                      # float 1
	.text
	.globl	main
	.p2align	4, 0x90
	.type	main,@function
main:                                   # @main
	.cfi_startproc
# %bb.0:
	pushq	%rbp
	.cfi_def_cfa_offset 16
	.cfi_offset %rbp, -16
	movq	%rsp, %rbp
	.cfi_def_cfa_register %rbp
	subq	$176, %rsp
	movl	$0, -4(%rbp)
	movl	$32, -8(%rbp)
	movl	-8(%rbp), %eax
	imull	-8(%rbp), %eax
	cltq
	shlq	$2, %rax
	movq	%rax, -16(%rbp)
	movq	-16(%rbp), %rdi
	callq	malloc@PLT
	movq	%rax, -24(%rbp)
	movq	-16(%rbp), %rdi
	callq	malloc@PLT
	movq	%rax, -32(%rbp)
	movq	-16(%rbp), %rdi
	callq	malloc@PLT
	movq	%rax, -40(%rbp)
	movl	$0, -68(%rbp)
.LBB1_1:                                # =>This Inner Loop Header: Depth=1
	movl	-68(%rbp), %eax
	movl	-8(%rbp), %ecx
	imull	-8(%rbp), %ecx
	cmpl	%ecx, %eax
	jge	.LBB1_4
# %bb.2:                                #   in Loop: Header=BB1_1 Depth=1
	movq	-24(%rbp), %rax
	movslq	-68(%rbp), %rcx
	movss	.LCPI1_1(%rip), %xmm0           # xmm0 = mem[0],zero,zero,zero
	movss	%xmm0, (%rax,%rcx,4)
	movq	-32(%rbp), %rax
	movslq	-68(%rbp), %rcx
	movss	.LCPI1_0(%rip), %xmm0           # xmm0 = mem[0],zero,zero,zero
	movss	%xmm0, (%rax,%rcx,4)
# %bb.3:                                #   in Loop: Header=BB1_1 Depth=1
	movl	-68(%rbp), %eax
	addl	$1, %eax
	movl	%eax, -68(%rbp)
	jmp	.LBB1_1
.LBB1_4:
	movq	-16(%rbp), %rsi
	leaq	-48(%rbp), %rdi
	callq	_ZL10cudaMallocIfE9cudaErrorPPT_m
	movq	-16(%rbp), %rsi
	leaq	-56(%rbp), %rdi
	callq	_ZL10cudaMallocIfE9cudaErrorPPT_m
	movq	-16(%rbp), %rsi
	leaq	-64(%rbp), %rdi
	callq	_ZL10cudaMallocIfE9cudaErrorPPT_m
	movq	-48(%rbp), %rdi
	movq	-24(%rbp), %rsi
	movq	-16(%rbp), %rdx
	movl	$1, %ecx
	callq	cudaMemcpy@PLT
	movq	-56(%rbp), %rdi
	movq	-32(%rbp), %rsi
	movq	-16(%rbp), %rdx
	movl	$1, %ecx
	callq	cudaMemcpy@PLT
	leaq	-80(%rbp), %rdi
	movl	$16, %edx
	movl	$1, %ecx
	movl	%edx, %esi
	callq	_ZN4dim3C2Ejjj
	movl	-8(%rbp), %eax
	addl	-80(%rbp), %eax
	subl	$1, %eax
	xorl	%edx, %edx
	divl	-80(%rbp)
	movl	%eax, %esi
	movl	-8(%rbp), %eax
	addl	-76(%rbp), %eax
	subl	$1, %eax
	xorl	%edx, %edx
	divl	-76(%rbp)
	movl	%eax, %edx
	leaq	-96(%rbp), %rdi
	movl	$1, %ecx
	callq	_ZN4dim3C2Ejjj
	movq	-96(%rbp), %rax
	movq	%rax, -112(%rbp)
	movl	-88(%rbp), %eax
	movl	%eax, -104(%rbp)
	movq	-80(%rbp), %rax
	movq	%rax, -128(%rbp)
	movl	-72(%rbp), %eax
	movl	%eax, -120(%rbp)
	movq	-112(%rbp), %rax
	movq	%rax, -144(%rbp)
	movl	-104(%rbp), %eax
	movl	%eax, -136(%rbp)
	movq	-144(%rbp), %rdi
	movl	-136(%rbp), %esi
	movq	-128(%rbp), %rax
	movq	%rax, -160(%rbp)
	movl	-120(%rbp), %eax
	movl	%eax, -152(%rbp)
	movq	-160(%rbp), %rdx
	movl	-152(%rbp), %ecx
	xorl	%eax, %eax
	movl	%eax, %r9d
	movq	%r9, %r8
	callq	__cudaPushCallConfiguration@PLT
	cmpl	$0, %eax
	jne	.LBB1_6
# %bb.5:
	movq	-48(%rbp), %rdi
	movq	-56(%rbp), %rsi
	movq	-64(%rbp), %rdx
	movl	-8(%rbp), %ecx
	callq	_Z24__device_stub__matrixMulPfS_S_i
.LBB1_6:
	movq	-40(%rbp), %rdi
	movq	-64(%rbp), %rsi
	movq	-16(%rbp), %rdx
	movl	$2, %ecx
	callq	cudaMemcpy@PLT
	movb	$1, -161(%rbp)
	movl	$0, -168(%rbp)
.LBB1_7:                                # =>This Inner Loop Header: Depth=1
	movl	-168(%rbp), %eax
	movl	-8(%rbp), %ecx
	imull	-8(%rbp), %ecx
	cmpl	%ecx, %eax
	jge	.LBB1_12
# %bb.8:                                #   in Loop: Header=BB1_7 Depth=1
	movq	-40(%rbp), %rax
	movslq	-168(%rbp), %rcx
	movss	(%rax,%rcx,4), %xmm0            # xmm0 = mem[0],zero,zero,zero
	cvtsi2ssl	-8(%rbp), %xmm2
	movss	.LCPI1_0(%rip), %xmm1           # xmm1 = mem[0],zero,zero,zero
	mulss	%xmm2, %xmm1
	ucomiss	%xmm1, %xmm0
	jne	.LBB1_9
	jp	.LBB1_9
	jmp	.LBB1_10
.LBB1_9:
	movb	$0, -161(%rbp)
	jmp	.LBB1_12
.LBB1_10:                               #   in Loop: Header=BB1_7 Depth=1
	jmp	.LBB1_11
.LBB1_11:                               #   in Loop: Header=BB1_7 Depth=1
	movl	-168(%rbp), %eax
	addl	$1, %eax
	movl	%eax, -168(%rbp)
	jmp	.LBB1_7
.LBB1_12:
	testb	$1, -161(%rbp)
	je	.LBB1_14
# %bb.13:
	leaq	.L.str.1(%rip), %rax
	movq	%rax, -176(%rbp)                # 8-byte Spill
	jmp	.LBB1_15
.LBB1_14:
	leaq	.L.str.2(%rip), %rax
	movq	%rax, -176(%rbp)                # 8-byte Spill
	jmp	.LBB1_15
.LBB1_15:
	movq	-176(%rbp), %rsi                # 8-byte Reload
	leaq	.L.str(%rip), %rdi
	movb	$0, %al
	callq	printf@PLT
	movq	-24(%rbp), %rdi
	callq	free@PLT
	movq	-32(%rbp), %rdi
	callq	free@PLT
	movq	-40(%rbp), %rdi
	callq	free@PLT
	movq	-48(%rbp), %rdi
	callq	cudaFree@PLT
	movq	-56(%rbp), %rdi
	callq	cudaFree@PLT
	movq	-64(%rbp), %rdi
	callq	cudaFree@PLT
	xorl	%eax, %eax
	addq	$176, %rsp
	popq	%rbp
	.cfi_def_cfa %rsp, 8
	retq
.Lfunc_end1:
	.size	main, .Lfunc_end1-main
	.cfi_endproc
                                        # -- End function
	.p2align	4, 0x90                         # -- Begin function _ZL10cudaMallocIfE9cudaErrorPPT_m
	.type	_ZL10cudaMallocIfE9cudaErrorPPT_m,@function
_ZL10cudaMallocIfE9cudaErrorPPT_m:      # @_ZL10cudaMallocIfE9cudaErrorPPT_m
	.cfi_startproc
# %bb.0:
	pushq	%rbp
	.cfi_def_cfa_offset 16
	.cfi_offset %rbp, -16
	movq	%rsp, %rbp
	.cfi_def_cfa_register %rbp
	subq	$16, %rsp
	movq	%rdi, -8(%rbp)
	movq	%rsi, -16(%rbp)
	movq	-8(%rbp), %rdi
	movq	-16(%rbp), %rsi
	callq	cudaMalloc@PLT
	addq	$16, %rsp
	popq	%rbp
	.cfi_def_cfa %rsp, 8
	retq
.Lfunc_end2:
	.size	_ZL10cudaMallocIfE9cudaErrorPPT_m, .Lfunc_end2-_ZL10cudaMallocIfE9cudaErrorPPT_m
	.cfi_endproc
                                        # -- End function
	.section	.text._ZN4dim3C2Ejjj,"axG",@progbits,_ZN4dim3C2Ejjj,comdat
	.weak	_ZN4dim3C2Ejjj                  # -- Begin function _ZN4dim3C2Ejjj
	.p2align	4, 0x90
	.type	_ZN4dim3C2Ejjj,@function
_ZN4dim3C2Ejjj:                         # @_ZN4dim3C2Ejjj
	.cfi_startproc
# %bb.0:
	pushq	%rbp
	.cfi_def_cfa_offset 16
	.cfi_offset %rbp, -16
	movq	%rsp, %rbp
	.cfi_def_cfa_register %rbp
	movq	%rdi, -8(%rbp)
	movl	%esi, -12(%rbp)
	movl	%edx, -16(%rbp)
	movl	%ecx, -20(%rbp)
	movq	-8(%rbp), %rax
	movl	-12(%rbp), %ecx
	movl	%ecx, (%rax)
	movl	-16(%rbp), %ecx
	movl	%ecx, 4(%rax)
	movl	-20(%rbp), %ecx
	movl	%ecx, 8(%rax)
	popq	%rbp
	.cfi_def_cfa %rsp, 8
	retq
.Lfunc_end3:
	.size	_ZN4dim3C2Ejjj, .Lfunc_end3-_ZN4dim3C2Ejjj
	.cfi_endproc
                                        # -- End function
	.text
	.p2align	4, 0x90                         # -- Begin function __cuda_register_globals
	.type	__cuda_register_globals,@function
__cuda_register_globals:                # @__cuda_register_globals
	.cfi_startproc
# %bb.0:
	subq	$40, %rsp
	.cfi_def_cfa_offset 48
	leaq	_Z24__device_stub__matrixMulPfS_S_i(%rip), %rsi
	leaq	.L__unnamed_1(%rip), %rcx
	movl	$4294967295, %r8d               # imm = 0xFFFFFFFF
	xorl	%eax, %eax
	movl	%eax, %r9d
	movq	%rcx, %rdx
	movq	$0, (%rsp)
	movq	$0, 8(%rsp)
	movq	$0, 16(%rsp)
	movq	$0, 24(%rsp)
	callq	__cudaRegisterFunction@PLT
	addq	$40, %rsp
	.cfi_def_cfa_offset 8
	retq
.Lfunc_end4:
	.size	__cuda_register_globals, .Lfunc_end4-__cuda_register_globals
	.cfi_endproc
                                        # -- End function
	.p2align	4, 0x90                         # -- Begin function __cuda_module_ctor
	.type	__cuda_module_ctor,@function
__cuda_module_ctor:                     # @__cuda_module_ctor
	.cfi_startproc
# %bb.0:
	pushq	%rax
	.cfi_def_cfa_offset 16
	leaq	__cuda_fatbin_wrapper(%rip), %rdi
	callq	__cudaRegisterFatBinary@PLT
	movq	%rax, %rdi
	movq	%rdi, (%rsp)                    # 8-byte Spill
	movq	%rdi, __cuda_gpubin_handle(%rip)
	callq	__cuda_register_globals
	movq	(%rsp), %rdi                    # 8-byte Reload
	callq	__cudaRegisterFatBinaryEnd@PLT
	leaq	__cuda_module_dtor(%rip), %rdi
	callq	atexit@PLT
	popq	%rax
	.cfi_def_cfa_offset 8
	retq
.Lfunc_end5:
	.size	__cuda_module_ctor, .Lfunc_end5-__cuda_module_ctor
	.cfi_endproc
                                        # -- End function
	.p2align	4, 0x90                         # -- Begin function __cuda_module_dtor
	.type	__cuda_module_dtor,@function
__cuda_module_dtor:                     # @__cuda_module_dtor
	.cfi_startproc
# %bb.0:
	pushq	%rax
	.cfi_def_cfa_offset 16
	movq	__cuda_gpubin_handle(%rip), %rdi
	callq	__cudaUnregisterFatBinary@PLT
	popq	%rax
	.cfi_def_cfa_offset 8
	retq
.Lfunc_end6:
	.size	__cuda_module_dtor, .Lfunc_end6-__cuda_module_dtor
	.cfi_endproc
                                        # -- End function
	.type	.L.str,@object                  # @.str
	.section	.rodata.str1.1,"aMS",@progbits,1
.L.str:
	.asciz	"%s\n"
	.size	.L.str, 4

	.type	.L.str.1,@object                # @.str.1
.L.str.1:
	.asciz	"PASS"
	.size	.L.str.1, 5

	.type	.L.str.2,@object                # @.str.2
.L.str.2:
	.asciz	"FAIL"
	.size	.L.str.2, 5

	.type	.L__unnamed_1,@object           # @0
.L__unnamed_1:
	.asciz	"_Z9matrixMulPfS_S_i"
	.size	.L__unnamed_1, 20

	.type	.L__unnamed_2,@object           # @1
	.section	.nv_fatbin,"a",@progbits
	.p2align	3
.L__unnamed_2:
	.asciz	"P\355U\272\001\000\020\0000\037\000\000\000\000\000\000\002\000\001\001@\000\000\000 \032\000\000\000\000\000\000\000\000\000\000\000\000\000\000\007\000\001\0002\000\000\000\000\000\000\000\000\000\000\000\021\000\000\000\000\000\000\000\000\000\000\000\000\000\000\000\000\000\000\000\000\000\000\000\177ELF\002\001\0013\007\000\000\000\000\000\000\000\002\000\276\000u\000\000\000\000\000\000\000\000\000\000\000\000\000\000\000\000\000\000\000\240\027\000\000\000\000\000\0002\0052\000@\000\000\000\000\000@\000\n\000\001\000\000.shstrtab\000.strtab\000.symtab\000.symtab_shndx\000.nv.info\000.text._Z9matrixMulPfS_S_i\000.nv.info._Z9matrixMulPfS_S_i\000.nv.shared._Z9matrixMulPfS_S_i\000.nv.global\000.nv.constant0._Z9matrixMulPfS_S_i\000.nv.rel.action\000\000.shstrtab\000.strtab\000.symtab\000.symtab_shndx\000.nv.info\000_Z9matrixMulPfS_S_i\000.text._Z9matrixMulPfS_S_i\000.nv.info._Z9matrixMulPfS_S_i\000.nv.shared._Z9matrixMulPfS_S_i\000.nv.global\000blockIdx\000blockDim\000threadIdx\000.nv.constant0._Z9matrixMulPfS_S_i\000_param\000.nv.rel.action\000\000\000\000\000\000\000\000\000\000\000\000\000\000\000\000\000\000\000\000\000\000\000\000\000\000F\000\000\000\003\000\b\000\000\000\000\000\000\000\000\000\000\000\000\000\000\000\000\000\234\000\000\000\003\000\t\000\000\000\000\000\000\000\000\000\000\000\000\000\000\000\000\000\247\000\000\000\001\000\t\000\001\000\000\000\000\000\000\000\001\000\000\000\000\000\000\000\260\000\000\000\001\000\t\000\002\000\000\000\000\000\000\000\001\000\000\000\000\000\000\000\271\000\000\000\001\000\t\000\000\000\000\000\000\000\000\000\001\000\000\000\000\000\000\000\303\000\000\000\003\000\007\000\000\000\000\000\000\000\000\000\000\000\000\000\000\000\000\000\354\000\000\000\003\000\006\000\000\000\000\000\000\000\000\000\000\000\000\000\000\000\000\0002\000\000\000\022\020\b\000\000\000\000\000\000\000\000\000\300\021\000\000\000\000\000\000\004/\b\000\b\000\000\000\r\000\000\000\004#\b\000\b\000\000\000\000\000\000\000\004\022\b\000\b\000\000\0000\000\000\000\004\021\b\000\b\000\000\0000\000\000\000\0047\004\000u\000\000\000\0010\000\000\001*\000\000\004\n\b\000\006\000\000\000@\001\034\000\003\031\034\000\004\027\f\000\000\000\000\000\003\000\030\000\000\360\021\000\004\027\f\000\000\000\000\000\002\000\020\000\000\360!\000\004\027\f\000\000\000\000\000\001\000\b\000\000\360!\000\004\027\f\000\000\000\000\000\000\000\000\000\000\360!\000\003\033\377\000\004\035\b\000\350\003\000\000\220\004\000\000\004\034\004\000\210\021\000\000\0044\020\000\270\b\000\000\000\000\000\000\001\000\000\000\240\016\000\000\004\036\004\000 \002\000\000\000\000\000\000K\000\000\000\000\000\000\000\000\002\002\b\020\n/\"\000\000\000\b\000\000\000\000\000\000\b\b\000\000\000\000\000\000\020\b\000\000\000\000\000\000\030\b\000\000\000\000\000\000 \b\000\000\000\000\000\000(\b\000\000\000\000\000\0000\b\000\000\000\000\000\0008\b\000\000\000\000\001\000\000\b\000\000\000\000\001\000\b\b\000\000\000\000\001\000\020\b\000\000\000\000\001\000\030\b\000\000\000\000\001\000 \b\000\000\000\000\001\000(\b\000\000\000\000\001\0000\b\000\000\000\000\001\0008\b\000\000\000\000\002\000\000\b\000\000\000\000\002\000\b\b\000\000\000\000\002\000\020\b\000\000\000\000\002\000\030\b\000\000\000\000\002\000 \b\000\000\000\000\002\000(\b\000\000\000\000\002\0000\b\000\000\000\000\002\0008\b\000\000\000\000\000\000\000\024,\000\000\000\t\000\000\f\000\000\000\000\000\000\000\000\000\000\000\000\000\000\000\000\000\000\000\000\000\000\000\000\000\000\000\000\000\000\000\000\000\000\000\000\000\000\000\000\000\000\000\000\000\000\000\000\000\000\000\000\000\000\000\000\000\000\000\000\000\000\000\000\000\000\000\000\000\000\000\000\000\000\000\000\000\000\000\000\000\000\000\000\000\000\000\000\000\000\000\000\000\000\000\000\000\000\000\000\000\000\000\000\000\000\000\000\000\000\000\000\000\000\000\000\000\000\000\000\000\000\000\000\000\000\000\000\000\000\000\000\000\000\000\000\000\000\000\000\000\000\000\000\000\000\000\000\000\000\000\000\000\000\000\000\000\000\000\000\000\000\000\000\000\000\000\000\000\000\000\000\000\000\000\000\000\000\000\000\000\000\000\000\000\000\000\000\000\000\000\000\000\000\000\000\000\000\000\000\000\000\000\000\000\000\000\000\000\000\000\000\000\000\000\000\000\000\000\000\000\000\000\000\000\000\000\000\000\000\000\000\000\000\000\000\000\000\000\000\000\000\000\000\000\000\000\000\000\000\000\000\000\000\000\000\000\000\000\000\000\000\000\000\000\000\000\000\000\000\000\000\000\000\000\000\000\000\000\000\000\000\000\000\000\000\000\000\000\000\000\000\000\000\000\000\000\000\000\000\000\000\000\000\000\000\000\000\000\000\000\000\000\000\000\000\000\000\000\000\000\000\000\000\000\000\000\000\000\000\000\000\000\000\000\000\000\000\000\000\000\000\000\000\000\000\000\000\000\000\000\000\000\000\000\000\357\037\340\375\003<d\000\001\000\207\000\200\007\230L\001\001\007\375\377\377\017\034\000\000w\003\000\000\310\360\357\037\340\375\003\274\177\000\007\001\007\000\200\003l[\017\000\200\000\000\000@\342\300\000\020\000\000\000\240\343\357\037\340!\003\274\177\000\000\001\367\017\000\000\020\\\000\n\007\000\000\000\340\\\002\000\007\000\200\007\230\\\357\037\340\375\003\274\177\000\003\000\367\017\200\007\230\\\000\000'\000\200\007\230\\\004\0007\000\200\007\230\\\357\037\340\375\003\274\177\000\003\000\007\000\200\007\230\\\004\000G\000\200\007\230\\\002\000\027\000\200\007\230L\357\037\340\375\003\274\177\000\000\000\367\017\200\007\230\\\002\003'\000\000\002G\\\000\004\007\000\000\002G\\\357\037\340!\003\274\177\000\003\360\207\025\000\000\000\001\003\003\007\000\000\000\224\357\003\0007\000\200\007\230\\\357\037\340!\003\274\177\000\004\360\007\025\000\000\000\001\004\004\007\000\000\000\225\357\n\000G\000\200\007\230\\\357\037\340\375\003\274\177\000\013\000W\000\200\007\230\\\n\000\247\000\200\007\230\\\013\000\267\000\200\007\230\\\357\037\340!\003\274\177\000\004\360\207\024\000\000\000\001\004\004\007\000\000\000\225\357\006\000G\000\200\007\230\\\357\037\340\375\003\274\177\000\007\000W\000\200\007\230\\\006\000g\000\200\007\230\\\007\000w\000\200\007\230\\\357\037\340!\003\274\177\000\004\360\007\024\000\000\000\001\004\004\007\000\000\000\225\357\b\000G\000\200\007\230\\\357\037\340\375\003\274\177\000\t\000W\000\200\007\230\\\b\000\207\000\200\007\230\\\t\000\227\000\200\007\230\\\357\037\340\375\003\274\177\000\004\000\247\000\200\007\230\\\005\000\267\000\200\007\230\\\004\000G\000\200\007\230\\\357\037\340\375\003\274\177\000\005\000W\000\200\007\230\\\004\000G\000\200\007\230\\\005\000W\000\200\007\230\\\357\037\340\375\003\274\177\000\006\000g\000\200\007\230\\\007\000w\000\200\007\230\\\006\000g\000\200\007\230\\\357\037\340\375\003\274\177\000\007\000w\000\200\007\230\\\006\000g\000\200\007\230\\\007\000w\000\200\007\230\\\357\037\340\375\003\274\177\000\b\000\207\000\200\007\230\\\t\000\227\000\200\007\230\\\b\000\207\000\200\007\230\\\357\037\340\375\003\274\177\000\t\000\227\000\200\007\230\\\b\000\207\000\200\007\230\\\t\000\227\000\200\007\230\\\357\037\340\375\003\274\177\000\013\002\367\017\000\200\020\\\f\000\367\017\000\b\020\\\013\000\267\000\200\007\230\\\357\037\340\375\003\274\177\000\f\000\307\000\200\007\230\\\n\013\367\017\000\200\327[\013\013\367\017@\006\330[\357\037\340\375\003\274g\000\n\000\247\000\200\007\230\\\013\000\267\000\200\007\230\\\b\n\007\000\000\000\260\240\357\037\340\375\003\274\177\000\t\002\207\000\000\000\020\034\n\000\367\017\000\b\020\\\t\000\227\000\200\007\230\\\357\037\340\375\003\274\177\000\n\000\247\000\200\007\230\\\b\t\367\017\000\200\327[\t\t\367\017@\005\330[\357\037\340\375\003\274g\000\b\000\207\000\200\007\230\\\t\000\227\000\200\007\230\\\006\b\007\000\000\000\260\240\357\037\340\375\003\274\177\000\007\002\007\001\000\000\020\034\b\000\367\017\000\b\020\\\007\000w\000\200\007\230\\\357\037\340\375\003\274\177\000\b\000\207\000\200\007\230\\\006\007\367\017\000\200\327[\007\007\367\017@\004\330[\357\037\340\375\003\274g\000\006\000g\000\200\007\230\\\007\000w\000\200\007\230\\\004\006\007\000\000\000\260\240\357\037\340\375\003\274\177\000\005\002\207\001\000\000\020\034\006\000\367\017\000\b\020\\\005\000W\000\200\007\230\\\357\037\340\375\003\274\177\000\006\000g\000\200\007\230\\\004\005\367\017\000\200\327[\005\005\367\017@\003\330[\357\037\340\375\003\274g\000\004\000G\000\200\007\230\\\005\000W\000\200\007\230\\\003\004\007\000\000\000\220\240\017\031\340\375\003\274\177\000\003\000g\002\000\000\310\360\003\0007\000\200\007\230\\\004\0007\000\200\007\230L\017\031\340!\003\274\177\000\003\003G\000\000\0038\\\004\000'\002\000\000\310\360\004\000G\000\200\007\230\\\357\037\340\375\003\274\177\000\003\003G\000\000\000\020\\\005\002\307\001\000\000\020\034\006\000\367\017\000\b\020\\\357\037\340\375\003\274\177\000\005\000W\000\200\007\230\\\006\000g\000\200\007\230\\\004\005\367\017\000\200\327[\357\037\340\375\003\274\177\000\005\005\367\017@\003\330[\004\000G\000\200\007\230\\\005\000W\000\200\007\230\\\357\031\340!\003\274\177\000\003\004\007\000\000\000\220\240\003\000W\002\000\000\310\360\003\0007\000\200\007\230\\\357\037\340!\003<d\000\004\000'\000\200\007\230L\003\003G\000\000\0038\\\004\000\027\002\000\000\310\360\357\037\340\375\003\274\177\000\004\000G\000\200\007\230\\\003\003G\000\000\000\020\\\005\002\007\002\000\000\020\034\357\037\340\375\003\274\177\000\006\000\367\017\000\b\020\\\005\000W\000\200\007\230\\\006\000g\000\200\007\230\\\357\037\340\375\003\274\177\000\004\005\367\017\000\200\327[\005\005\367\017@\003\330[\004\000G\000\200\007\230\\\357\037\340=\003\274\177\000\005\000W\000\200\007\230\\\003\004\007\000\000\000\220\240\005\002\307\001\000\000\020\034\357\037\340\375\003\274\177\000\003\000\367\017\000\b\020\\\005\000W\000\200\007\230\\\003\0007\000\200\007\230\\\357\037\340\375\003\274\177\000\004\005\367\017\000\200\327[\005\005\367\017\300\001\330[\004\000G\000\200\007\230\\\357\037\340!\003\274\177\000\005\000W\000\200\007\230\\\003\004\007\000\000\000\220\200\005\002\207\001\000\000\020\034\357\037\340\375\003\274\177\000\006\000\367\017\000\b\020\\\005\000W\000\200\007\230\\\006\000g\000\200\007\230\\\357\037\340\375\003\274\177\000\004\005\367\017\000\200\327[\005\005\367\017@\003\330[\004\000G\000\200\007\230\\\357\037\340!\003\274\177\000\005\000W\000\200\007\230\\\004\004\007\000\000\000\220\200\007\003G\000\200\003m[\357\037\340\375\003\274\177\000\002\000'\000\200\007\230\\\000\000\007\000\200\007\230\\\017\000\000\266\000\000@\342\357\037\340\375\003\274\177\000\017\000\007\000\000\000@\342\005\002\007\002\000\000\020\034\003\000\367\017\000\b\020\\\357\037\340\375\003\274\177\000\005\000W\000\200\007\230\\\003\0007\000\200\007\230\\\004\005\367\017\000\200\327[\357\037\340\375\003\274\177\000\005\005\367\017\300\001\330[\004\000G\000\200\007\230\\\005\000W\000\200\007\230\\\017\031\340\375\003\274\177\000\003\004\007\000\000\000\220\200\005\002\207\001\000\000\020\034\006\000\367\017\000\b\020\\\357\037\340\375\003\274\177\000\005\000W\000\200\007\230\\\006\000g\000\200\007\230\\\004\005\367\017\000\200\327[\357\037\340\375\003\274\177\000\005\005\367\017@\003\330[\004\000G\000\200\007\230\\\005\000W\000\200\007\230\\\017\031\340\375\003\274\177\000\004\004\007\000\000\000\220\200\007\003G\000\200\003m[\017\000\000\250\000\000@\342\357\037\340\375\003\274\177\000\017\000\007\000\000\000@\342\006\000\367\017\200\007\230\\\005\002G\002\000\000\020\034\357\037\340\375\003\274\177\000\003\000\367\017\000\b\020\\\005\000W\000\200\007\230\\\003\0007\000\200\007\230\\\357\037\340\375\003\274\177\000\004\005\367\017\000\200\327[\005\005\367\017\300\001\330[\004\000G\000\200\007\230\\\357\037\340=\003\274\177\000\005\000W\000\200\007\230\\\006\004\007\000\000\000\220\240\005\002\207\002\000\000\020\034\357\037\340\375\003\274\177\000\003\000\367\017\000\b\020\\\005\000W\000\200\007\230\\\003\0007\000\200\007\230\\\357\037\340\375\003\274\177\000\004\005\367\017\000\200\327[\005\005\367\017\300\001\330[\004\000G\000\200\007\230\\\357\037\340=\003\274\177\000\005\000W\000\200\007\230\\\006\004\007\000\000\000\220\240\000\000\000l\000\000\220\342\357\037\340\375\003\274\177\000\017\000\007\000\000\000@\342\005\002\207\002\000\000\020\034\003\000\367\017\000\b\020\\\357\037\340\375\003\274\177\000\005\000W\000\200\007\230\\\003\0007\000\200\007\230\\\004\005\367\017\000\200\327[\357\037\340\375\003\274\177\000\005\005\367\017\300\001\330[\004\000G\000\200\007\230\\\005\000W\000\200\007\230\\\017\031\340\375\003\274\177\000\003\004\007\000\000\000\220\200\005\002\207\001\000\000\020\034\006\000\367\017\000\b\020\\\357\037\340\375\003\274\177\000\005\000W\000\200\007\230\\\006\000g\000\200\007\230\\\004\005\367\017\000\200\327[\357\037\340\375\003\274\177\000\005\005\367\017@\003\330[\004\000G\000\200\007\230\\\005\000W\000\200\007\230\\\017\031\340\375\003\274\177\000\004\004\007\000\000\000\220\200\007\003G\000\200\003m[\017\000\000\000\000\000\370\360\357\037\340\375\003\274\177\000\017\000\007\000\000\000@\342\007\002\367\017\000\200\020\\\003\000\367\017\000\b\020\\\357\037\340\375\003\274\177\000\007\000w\000\200\007\230\\\003\0007\000\200\007\230\\\006\007\367\017\000\200\327[\357\037\340\375\003\274\177\000\007\007\367\017\300\001\330[\006\000g\000\200\007\230\\\007\000w\000\200\007\230\\\017\031\340\375\003\274\177\000\006\006\007\000\000\000\260\200\003\000g\000\200\007\230\\\006\000w\000\200\007\230\\\357\037\340\375\003\274\177\000\005\002\307\001\000\000\020\034\007\000\367\017\000\b\020\\\005\000W\000\200\007\230\\\357\037\340\375\003\274\177\000\007\000w\000\200\007\230\\\004\005\367\017\000\200\327[\005\005\367\017\300\003\330[\357\037\340\375\003<d\000\004\000G\000\200\007\230\\\005\000W\000\200\007\230\\\007\004\007\000\000\000\220\200\357\037\340\375\003\274\177\000\005\002\207\001\000\000\020\034\b\000\367\017\000\b\020\\\005\000W\000\200\007\230\\\357\037\340\375\003\274\177\000\b\000\207\000\200\007\230\\\004\005\367\017\000\200\327[\005\005\367\017@\004\330[\357\037\340\375\003<d\000\004\000G\000\200\007\230\\\005\000W\000\200\007\230\\\004\004\007\000\000\000\220\200\017\031\340\375\003\274\177\000\007\007G\000\000\0038\\\t\002\207\002\000\000\020\034\005\000\367\017\000\b\020\\\357\037\340\375\003\274\177\000\t\000\227\000\200\007\230\\\005\000W\000\200\007\230\\\b\t\367\017\000\200\327[\357\037\340\375\003\274\177\000\t\t\367\017\300\002\330[\b\000\207\000\200\007\230\\\t\000\227\000\200\007\230\\\017\031\340\375\003<d\000\005\b\007\000\000\000\220\200\007\007W\000\000\000\020\\\007:w\000\000\000\340\\\357\037\340\375\003\274\177\000\b\007\367\001\000\000)8\t\000\207\000\200\007\230\\\b\000w\000\200\007\230\\\357\037\340\375\003\274\177\000\007\000\207\000\200\007\230\\\b\000\227\000\200\007\230\\\007\000w\000\200\007\230\\\357\037\340\375\003\274\177\000\b\000\207\000\200\007\230\\\b\007'\000@\004\3706\007\007'\000\000\000H8\357\037\340\375\003\274\177\000\003\003w\000\000\200\020\\\006\006\207\000\000\b\020\\\007\0007\000\200\007\230\\\357\037\340\375\003\274\177\000\003\000g\000\200\007\230\\\006\007\367\017\000\200\327[\007\007\367\017\300\001\330[\357\037\340\375\003<d\000\006\000g\000\200\007\230\\\007\000w\000\200\007\230\\\003\006\007\000\000\000\220\200\357\037\340\375\003\274\177\000\007\002\207\000\000\000\020\034\b\000\367\017\000\b\020\\\007\000w\000\200\007\230\\\357\037\340\375\003\274\177\000\b\000\207\000\200\007\230\\\006\007\367\017\000\200\327[\007\007\367\017@\004\330[\357\037\340\375\003<d\000\006\000g\000\200\007\230\\\007\000w\000\200\007\230\\\006\006\007\000\000\000\260\200\357\037\340\375\003<d\000\b\000g\000\200\007\230\\\t\000w\000\200\007\230\\\006\005G\000\000\0038\\\357\037\340\375\003\274\177\000\005\002\007\002\000\000\020\034\007\000\367\017\000\b\020\\\005\000W\000\200\007\230\\\357\037\340\375\003\274\177\000\007\000w\000\200\007\230\\\004\005\367\017\000\200\327[\005\005\367\017\300\003\330[\357\037\340\375\003<d\000\004\000G\000\200\007\230\\\005\000W\000\200\007\230\\\004\004\007\000\000\000\220\200\357\037\340!\003\274\177\000\004\006G\000\000\000\020\\\004:G\000\000\000\340\\\005\004\367\001\000\000)8\357\037\340\375\003\274\177\000\004\000G\000\200\007\230\\\005\000W\000\200\007\230\\\006\000G\000\200\007\230\\\357\037\340\375\003\274\177\000\004\000W\000\200\007\230\\\005\000g\000\200\007\230\\\006\000G\000\200\007\230\\\357\037\340\375\003\274\177\000\006\005'\000@\003\3706\005\005'\000\000\000H8\005\bW\000\000\200\020\\\357\037\340\375\003\274\177\000\006\tg\000\000\b\020\\\005\000W\000\200\007\230\\\006\000g\000\200\007\230\\\357\037\340\375\003\274\177\000\004\005\367\017\000\200\327[\005\005\367\017@\003\330[\004\000G\000\200\007\230\\\357\037\340!\003\274\177\000\005\000W\000\200\007\230\\\006\004\007\000\000\000\220\200\005\002G\002\000\000\020\034\357\037\340\375\003\274\177\000\007\000\367\017\000\b\020\\\005\000W\000\200\007\230\\\007\000w\000\200\007\230\\\357\037\340\375\003\274\177\000\004\005\367\017\000\200\327[\005\005\367\017\300\003\330[\004\000G\000\200\007\230\\\357\037\340!\003\274\177\000\005\000W\000\200\007\230\\\004\004\007\000\000\000\220\200\003\003g\000\000\002\200Y\357\037\340\375\003\274\177\000\005\002G\002\000\000\020\034\006\000\367\017\000\b\020\\\005\000W\000\200\007\230\\\357\037\340\375\003\274\177\000\006\000g\000\200\007\230\\\004\005\367\017\000\200\327[\005\005\367\017@\003\330[\357\037\340\375\003\274g\000\004\000G\000\200\007\230\\\005\000W\000\200\007\230\\\003\004\007\000\000\000\220\240\357\037\340\375\003\274\177\000\017\000\007\000\000\000@\342\005\002\207\002\000\000\020\034\003\000\367\017\000\b\020\\\357\037\340\375\003\274\177\000\005\000W\000\200\007\230\\\003\0007\000\200\007\230\\\004\005\367\017\000\200\327[\357\037\340\375\003\274\177\000\005\005\367\017\300\001\330[\004\000G\000\200\007\230\\\005\000W\000\200\007\230\\\017\031\340\375\003\274\177\000\004\004\007\000\000\000\220\200\003\004\027\000\000\000\000\034\005\002\207\002\000\000\020\034\357\037\340\375\003\274\177\000\006\000\367\017\000\b\020\\\005\000W\000\200\007\230\\\006\000g\000\200\007\230\\\357\037\340\375\003\274\177\000\004\005\367\017\000\200\327[\005\005\367\017@\003\330[\004\000G\000\200\007\230\\\357\037\340=\003\274\177\000\005\000W\000\200\007\230\\\003\004\007\000\000\000\220\240\017\000\007\225\377\017@\342\357\037\340\375\003\274\177\000\005\002G\002\000\000\020\034\003\000\367\017\000\b\020\\\005\000W\000\200\007\230\\\357\037\340\375\003\274\177\000\003\0007\000\200\007\230\\\004\005\367\017\000\200\327[\005\005\367\017\300\001\330[\357\037\340\375\003<d\000\004\000G\000\200\007\230\\\005\000W\000\200\007\230\\\003\004\007\000\000\000\220\200\357\037\340\375\003\274\177\000\007\002\007\001\000\000\020\034\004\000\367\017\000\b\020\\\007\000w\000\200\007\230\\\357\037\340\375\003\274\177\000\004\000G\000\200\007\230\\\006\007\367\017\000\200\327[\007\007\367\017@\002\330[\357\037\340\375\003<d\000\006\000g\000\200\007\230\\\007\000w\000\200\007\230\\\006\006\007\000\000\000\260\200\357\037\340\375\003\274\177\000\004\000g\000\200\007\230\\\005\000w\000\200\007\230\\\007\002\307\001\000\000\020\034\357\037\340\375\003\274\177\000\b\000\367\017\000\b\020\\\007\000w\000\200\007\230\\\b\000\207\000\200\007\230\\\357\037\340\375\003\274\177\000\006\007\367\017\000\200\327[\007\007\367\017@\004\330[\006\000g\000\200\007\230\\\357\037\340!\003\274\177\000\007\000w\000\200\007\230\\\b\006\007\000\000\000\220\200\007\002\207\001\000\000\020\034\357\037\340\375\003\274\177\000\t\000\367\017\000\b\020\\\007\000w\000\200\007\230\\\t\000\227\000\200\007\230\\\357\037\340\375\003\274\177\000\006\007\367\017\000\200\327[\007\007\367\017\300\004\330[\006\000g\000\200\007\230\\\357\037\340!\003<d\000\007\000w\000\200\007\230\\\006\006\007\000\000\000\220\200\b\bg\000\000\0038\\\357\037\340\375\003\274\177\000\007\002\007\002\000\000\020\034\000\000\367\017\000\b\020\\\007\000w\000\200\007\230\\\357\037\340\375\003\274\177\000\000\000\007\000\200\007\230\\\006\007\367\017\000\200\327[\007\007\367\017@\000\330[\357\037\340\375\003<d\000\006\000g\000\200\007\230\\\007\000w\000\200\007\230\\\006\006\007\000\000\000\220\200\357\037\340!\003\274\177\000\006\bg\000\000\000\020\\\006:g\000\000\000\340\\\007\006\367\001\000\000)8\357\037\340\375\003\274\177\000\006\000g\000\200\007\230\\\007\000w\000\200\007\230\\\000\000g\000\200\007\230\\\357\037\340\375\003\274\177\000\002\000w\000\200\007\230\\\000\000\007\000\200\007\230\\\002\000'\000\200\007\230\\\357\037\340\375\003\274\177\000\002\000'\000@\001\3706\000\000'\000\000\000H8\004\004\007\000\000\200\020\\\357\037\340\375\003\274\177\000\000\005'\000\000\b\020\\\005\000G\000\200\007\230\\\000\000\007\000\200\007\230\\\357\037\340\375\003\274\177\000\004\005\367\017\000\200\327[\005\005\367\017@\000\330[\004\000G\000\200\007\230\\\357\037\340=\003\274\177\000\005\000W\000\200\007\230\\\003\004\007\000\000\000\220\240\017\000\007\000\000\000@\342\357\037\340\377\000\200\037\000\017\000\007\000\000\000\000\343\017\000\207\377\377\017@\342\000\017\007\000\000\000\260P\340\007\000\374\000\200\037\000\000\017\007\000\000\000\260P\000\017\007\000\000\000\260P\000\017\007\000\000\000\260P\000\000\000\000\000\000\000\000\000\000\000\000\000\000\000\000\000\000\000\000\000\000\000\000\000\000\000\000\000\000\000\000\000\000\000\000\000\000\000\000\000\000\000\000\000\000\000\000\000\000\000\000\000\000\000\000\000\000\000\000\000\000\000\000\001\000\000\000\003\000\000\000\000\000\000\000\000\000\000\000\000\000\000\000\000\000\000\000@\000\000\000\000\000\000\000\304\000\000\000\000\000\000\000\000\000\000\000\000\000\000\000\001\000\000\000\000\000\000\000\000\000\000\000\000\000\000\000\013\000\000\000\003\000\000\000\000\000\000\000\000\000\000\000\000\000\000\000\000\000\000\000\004\001\000\000\000\000\000\000\373\000\000\000\000\000\000\000\000\000\000\000\000\000\000\000\001\000\000\000\000\000\000\000\000\000\000\000\000\000\000\000\023\000\000\000\002\000\000\000\000\000\000\000\000\000\000\000\000\000\000\000\000\000\000\000\000\002\000\000\000\000\000\000\330\000\000\000\000\000\000\000\002\000\000\000\b\000\000\000\b\000\000\000\000\000\000\000\030\000\000\000\000\000\000\000)\000\000\000\000\000\000p\000\000\000\000\000\000\000\000\000\000\000\000\000\000\000\000\330\002\000\000\000\000\000\0000\000\000\000\000\000\000\000\003\000\000\000\000\000\000\000\004\000\000\000\000\000\000\000\000\000\000\000\000\000\000\000L\000\000\000\000\000\000p\000\000\000\000\000\000\000\000\000\000\000\000\000\000\000\000\b\003\000\000\000\000\000\000\224\000\000\000\000\000\000\000\003\000\000\000\b\000\000\000\004\000\000\000\000\000\000\000\000\000\000\000\000\000\000\000\265\000\000\000\013\000\000p\000\000\000\000\000\000\000\000\000\000\000\000\000\000\000\000\240\003\000\000\000\000\000\000\340\000\000\000\000\000\000\000\000\000\000\000\000\000\000\000\b\000\000\000\000\000\000\000\b\000\000\000\000\000\000\000\223\000\000\000\001\000\000\000\002\000\000\000\000\000\000\000\000\000\000\000\000\000\000\000\200\004\000\000\000\000\000\000\\\001\000\000\000\000\000\000\000\000\000\000\b\000\000\000\004\000\000\000\000\000\000\000\000\000\000\000\000\000\000\0002\000\000\000\001\000\000\000\006\000\000\000\000\000\000\000\000\000\000\000\000\000\000\000\340\005\000\000\000\000\000\000\300\021\000\000\000\000\000\000\003\000\000\000\b\000\000\r \000\000\000\000\000\000\000\000\000\000\000\000\000\000\000\210\000\000\000\b\000\000\000\003\000\000\000\000\000\000\000\000\000\000\000\000\000\000\000\240\027\000\000\000\000\000\000\003\000\000\000\000\000\000\000\000\000\000\000\000\000\000\000\001\000\000\000\000\000\000\000\000\000\000\000\000\000\000\000\001\000\001\001H\000\000\000\210\004\000\000\000\000\000\000\202\004\000\000@\000\000\000\005\000\007\0002\000\000\000\000\000\000\000\000\000\000\000\021 \000\000\000\000\000\000\000\000\000\000\000\000\000\000w\n\000\000\000\000\000\000\000\000\000\000\000\000\000\000\360 \n\n\n\n.version 7.5\n.target sm_50\n.address_size 64.\000\377\021global .align 1 .b8 blockIdx[1];\"\000\b?Dim\"\000\007dthreadE\000\377\"\n.visible .entry _Z9matrixMulPfS_S_i(\n.param .u64!\000\001\021_\037\000?_0,)\000\024\0371)\000\025\0272)\000/32)\000\b\2463\n)\n{\n.loc\357\000\0218\357\000!__\025\000\240_depot0[48\030\001\313reg .b64 %SP\017\000\024L\020\000\245pred %p<4>\"\000v32 %r<3\022\000\020f\022\000If<6>E\000\343rd<22>;\n\nmov.uW\000\033,\212\000b;\ncvta\262\000\004%\000\023,\201\000\"ld\366\000\001\365\000o%r1, [\373\000\b\030]1\000\002\200\000\03732\000\n\03722\000\000\03722\000\n\03712\000\000\017\226\000\013#0]\341\000#to\206\002\0048\000 4,\006\000\0233\037\000\n\034\000\0215\034\000\0374;\000\005\0216\037\000\0372;\000\002\0217\034\000\0376;\000\005\0218\037\000\0371;\000\002\0219\034\000Q8;\nst\023\000q[%SP+0]\026\000\0329\026\000\0228\026\000\0327\026\000\"16\027\000\0225\027\000\"32\027\000!24\027\000\"1;\t\002\001\314\001\2702, %ctaid.y\027\000c3, %nt\026\000qul.lo.s\031\000#4,5\000(r30\000\000)\001\003/\0003add,\000$6,1\000\f\211\000\002\267\000\0306B\000\0257\211\000\030x\027\000\0248\211\000\033x\211\000#9,5\000(r80\000#10\212\000\030x\212\000411,3\000*10\214\000\"32\025\001\0211R\002\003E\000%2,\251\000\b\027\000%3,I\001\222;\nsetp.geb\0003p1,8\000\000'\000\362\013;\n@%p1 bra LBB0_7;\nbra.uni\020\00021;\n\b\000\027:]\000%4,\221\000\bt\000\0375t\000\007#2,8\000\000'\000\001t\000\0372t\000\007\0232t\000(2:.\001<6, \020\001\002<\002*16\027\000%40\027\000\tW\000\0233W\000\0303\313\000%7,5\000\b\313\000\0378\313\000\007#3,8\000\000'\000\001\313\000\0263\313\000\ft\000\0234t\000\0224t\000\0025\003\005@\001\tt\000/24\312\001\002\0312V\001\tX\002326,8\000\000'\000\b4\000\t\326\000\006\\\002628,7\000\0217\321\003C.s64\036\0001d15\031\000\000\316\003$hl\220\005\000x\001\003\034\000\0232L\000\003\031\000$7,\315\000\000\007\000\0216\200\000\002\326\005\001\224\002\000\"\000(];\367\000\004U\001\0358\311\000#9,\266\000\013\311\000(30j\002\006\311\000531,7\000.30\311\000\002\031\000\0311\311\000420,\034\000\n\311\000421,\237\000\001'\000\007\311\000\0223\311\000721]\025\000%4,\177\002\203;\nfma.rn\032\000\"5,\375\000\0019\0001%f4\230\002\032f\257\002+f5#\002\0235#\002\0275\227\002/32\301\001\003333,\036\000\0371\364\002\002/33\364\002\004&6:\300\000\0301\300\000\007\237\001%0,\223\005\026;\213\000/19\227\002\003\0370\227\002\007#1,8\000\000'\000\b4\000\0372\316\001\003523,7\000.22\316\001\002\031\000\0323\227\002$2,\034\000\013\227\002$3,\316\000\000\007\000\0272\204\001\000\035\000\001\203\001\0331&\001\0237&\001\3007:\nret;\n\n}\n\000\000\000\000\000\000\000"
	.size	.L__unnamed_2, 8001

	.type	__cuda_fatbin_wrapper,@object   # @__cuda_fatbin_wrapper
	.section	.nvFatBinSegment,"aw",@progbits
	.p2align	3
__cuda_fatbin_wrapper:
	.long	1180844977                      # 0x466243b1
	.long	1                               # 0x1
	.quad	.L__unnamed_2
	.quad	0
	.size	__cuda_fatbin_wrapper, 24

	.type	__cuda_gpubin_handle,@object    # @__cuda_gpubin_handle
	.local	__cuda_gpubin_handle
	.comm	__cuda_gpubin_handle,8,8
	.section	.init_array,"aw",@init_array
	.p2align	3
	.quad	__cuda_module_ctor
	.ident	"Ubuntu clang version 14.0.0-1ubuntu1.1"
	.section	".note.GNU-stack","",@progbits
	.addrsig
	.addrsig_sym _Z24__device_stub__matrixMulPfS_S_i
	.addrsig_sym __cudaPopCallConfiguration
	.addrsig_sym cudaLaunchKernel
	.addrsig_sym malloc
	.addrsig_sym _ZL10cudaMallocIfE9cudaErrorPPT_m
	.addrsig_sym cudaMemcpy
	.addrsig_sym __cudaPushCallConfiguration
	.addrsig_sym printf
	.addrsig_sym free
	.addrsig_sym cudaFree
	.addrsig_sym cudaMalloc
	.addrsig_sym __cuda_register_globals
	.addrsig_sym __cudaRegisterFunction
	.addrsig_sym __cudaRegisterFatBinary
	.addrsig_sym __cuda_module_ctor
	.addrsig_sym __cudaRegisterFatBinaryEnd
	.addrsig_sym __cudaUnregisterFatBinary
	.addrsig_sym __cuda_module_dtor
	.addrsig_sym atexit
	.addrsig_sym .L__unnamed_2
	.addrsig_sym __cuda_fatbin_wrapper
	.addrsig_sym __cuda_gpubin_handle
